target datalayout = "e-m:e-p270:32:32-p271:32:32-p272:64:64-i64:64-i128:128-f80:128-n8:16:32:64-S128"
target triple = "x86_64-pc-linux-gnu"

%struct.JNINativeInterface_ = type { ptr, ptr, ptr, ptr, ptr, ptr, ptr, ptr, ptr, ptr, ptr, ptr, ptr, ptr, ptr, ptr, ptr, ptr, ptr, ptr, ptr, ptr, ptr, ptr, ptr, ptr, ptr, ptr, ptr, ptr, ptr, ptr, ptr, ptr, ptr, ptr, ptr, ptr, ptr, ptr, ptr, ptr, ptr, ptr, ptr, ptr, ptr, ptr, ptr, ptr, ptr, ptr, ptr, ptr, ptr, ptr, ptr, ptr, ptr, ptr, ptr, ptr, ptr, ptr, ptr, ptr, ptr, ptr, ptr, ptr, ptr, ptr, ptr, ptr, ptr, ptr, ptr, ptr, ptr, ptr, ptr, ptr, ptr, ptr, ptr, ptr, ptr, ptr, ptr, ptr, ptr, ptr, ptr, ptr, ptr, ptr, ptr, ptr, ptr, ptr, ptr, ptr, ptr, ptr, ptr, ptr, ptr, ptr, ptr, ptr, ptr, ptr, ptr, ptr, ptr, ptr, ptr, ptr, ptr, ptr, ptr, ptr, ptr, ptr, ptr, ptr, ptr, ptr, ptr, ptr, ptr, ptr, ptr, ptr, ptr, ptr, ptr, ptr, ptr, ptr, ptr, ptr, ptr, ptr, ptr, ptr, ptr, ptr, ptr, ptr, ptr, ptr, ptr, ptr, ptr, ptr, ptr, ptr, ptr, ptr, ptr, ptr, ptr, ptr, ptr, ptr, ptr, ptr, ptr, ptr, ptr, ptr, ptr, ptr, ptr, ptr, ptr, ptr, ptr, ptr, ptr, ptr, ptr, ptr, ptr, ptr, ptr, ptr, ptr, ptr, ptr, ptr, ptr, ptr, ptr, ptr, ptr, ptr, ptr, ptr, ptr, ptr, ptr, ptr, ptr, ptr, ptr, ptr, ptr, ptr, ptr, ptr, ptr, ptr, ptr, ptr, ptr, ptr, ptr, ptr, ptr, ptr, ptr, ptr, ptr, ptr, ptr, ptr, ptr, ptr, ptr, ptr, ptr, ptr, ptr }
%struct.GSS_FUNCTION_TABLE = type { ptr, ptr, ptr, ptr, ptr, ptr, ptr, ptr, ptr, ptr, ptr, ptr, ptr, ptr, ptr, ptr, ptr, ptr, ptr, ptr, ptr, ptr, ptr, ptr, ptr, ptr, ptr, ptr, ptr }

@JGSS_DEBUG = external global i32, align 4
@stderr = external global ptr, align 8
@ftab = external global ptr, align 8
@.str.58 = private unnamed_addr constant [59 x i8] c"[GSSLibStub:%d] [GSSLibStub_getContextName] %lu, isSrc=%d\0A\00", align 1
@.str.59 = private unnamed_addr constant [31 x i8] c"[GSSLibStub_inquireContextAll]\00", align 1
@.str.60 = private unnamed_addr constant [55 x i8] c"[GSSLibStub:%d] [GSSLibStub_getContextName] pName=%lu\0A\00", align 1

; Function Attrs: nounwind uwtable
define i64 @Java_sun_security_jgss_wrapper_GSSLibStub_getContextName(ptr noundef %0, ptr noundef %1, i64 noundef %2, i8 noundef zeroext %3) #0 {
  %5 = alloca i64, align 8
  %6 = alloca ptr, align 8
  %7 = alloca ptr, align 8
  %8 = alloca i64, align 8
  %9 = alloca i8, align 1
  %10 = alloca i32, align 4
  %11 = alloca i32, align 4
  %12 = alloca ptr, align 8
  %13 = alloca ptr, align 8
  store ptr %0, ptr %6, align 8
  store ptr %1, ptr %7, align 8
  store i64 %2, ptr %8, align 8
  store i8 %3, ptr %9, align 1
  %14 = load i64, ptr %8, align 8
  %15 = inttoptr i64 %14 to ptr
  store ptr %15, ptr %13, align 8
  %16 = load i32, ptr @JGSS_DEBUG, align 4
  %17 = icmp ne i32 %16, 0
  br i1 %17, label %18, label %27

18:                                               ; preds = %4
  %19 = load ptr, ptr @stderr, align 8
  %20 = load ptr, ptr %13, align 8
  %21 = ptrtoint ptr %20 to i64
  %22 = load i8, ptr %9, align 1
  %23 = zext i8 %22 to i32
  %24 = call i32 (ptr, ptr, ...) @fprintf(ptr noundef %19, ptr noundef @.str.58, i32 noundef 1281, i64 noundef %21, i32 noundef %23) #5
  %25 = load ptr, ptr @stderr, align 8
  %26 = call i32 @fflush(ptr noundef %25)
  br label %27

27:                                               ; preds = %18, %4
  store ptr null, ptr %12, align 8
  %28 = load i8, ptr %9, align 1
  %29 = zext i8 %28 to i32
  %30 = icmp eq i32 %29, 1
  br i1 %30, label %31, label %37

31:                                               ; preds = %27
  %32 = load ptr, ptr @ftab, align 8
  %33 = getelementptr inbounds %struct.GSS_FUNCTION_TABLE, ptr %32, i32 0, i32 13
  %34 = load ptr, ptr %33, align 8
  %35 = load ptr, ptr %13, align 8
  %36 = call i32 %34(ptr noundef %10, ptr noundef %35, ptr noundef %12, ptr noundef null, ptr noundef null, ptr noundef null, ptr noundef null, ptr noundef null, ptr noundef null)
  store i32 %36, ptr %11, align 4
  br label %43

37:                                               ; preds = %27
  %38 = load ptr, ptr @ftab, align 8
  %39 = getelementptr inbounds %struct.GSS_FUNCTION_TABLE, ptr %38, i32 0, i32 13
  %40 = load ptr, ptr %39, align 8
  %41 = load ptr, ptr %13, align 8
  %42 = call i32 %40(ptr noundef %10, ptr noundef %41, ptr noundef null, ptr noundef %12, ptr noundef null, ptr noundef null, ptr noundef null, ptr noundef null, ptr noundef null)
  store i32 %42, ptr %11, align 4
  br label %43

43:                                               ; preds = %37, %31
  %44 = load ptr, ptr %6, align 8
  %45 = load ptr, ptr %7, align 8
  %46 = load i32, ptr %11, align 4
  %47 = load i32, ptr %10, align 4
  call void @checkStatus(ptr noundef %44, ptr noundef %45, i32 noundef %46, i32 noundef %47, ptr noundef @.str.59)
  %48 = load ptr, ptr %6, align 8
  %49 = load ptr, ptr %48, align 8
  %50 = getelementptr inbounds %struct.JNINativeInterface_, ptr %49, i32 0, i32 228
  %51 = load ptr, ptr %50, align 8
  %52 = load ptr, ptr %6, align 8
  %53 = call zeroext i8 %51(ptr noundef %52)
  %54 = icmp ne i8 %53, 0
  br i1 %54, label %55, label %56

55:                                               ; preds = %43
  store i64 0, ptr %5, align 8
  br label %69

56:                                               ; preds = %43
  %57 = load i32, ptr @JGSS_DEBUG, align 4
  %58 = icmp ne i32 %57, 0
  br i1 %58, label %59, label %66

59:                                               ; preds = %56
  %60 = load ptr, ptr @stderr, align 8
  %61 = load ptr, ptr %12, align 8
  %62 = ptrtoint ptr %61 to i64
  %63 = call i32 (ptr, ptr, ...) @fprintf(ptr noundef %60, ptr noundef @.str.60, i32 noundef 1298, i64 noundef %62) #5
  %64 = load ptr, ptr @stderr, align 8
  %65 = call i32 @fflush(ptr noundef %64)
  br label %66

66:                                               ; preds = %59, %56
  %67 = load ptr, ptr %12, align 8
  %68 = ptrtoint ptr %67 to i64
  store i64 %68, ptr %5, align 8
  br label %69

69:                                               ; preds = %66, %55
  %70 = load i64, ptr %5, align 8
  ret i64 %70
}