; Function Attrs: nounwind uwtable
define i64 @Java_sun_security_jgss_wrapper_GSSLibStub_getContextName(ptr noundef %0, ptr noundef %1, i64 noundef %2, i8 noundef zeroext %3) local_unnamed_addr #0 {
  %5 = alloca i32, align 4
  %6 = alloca ptr, align 8
  %7 = inttoptr i64 %2 to ptr
  %8 = load i32, ptr @JGSS_DEBUG, align 4
  %.not = icmp eq i32 %8, 0
  br i1 %.not, label %15, label %9

9:                                                ; preds = %4
  %10 = load ptr, ptr @stderr, align 8
  %11 = zext i8 %3 to i32
  %12 = tail call i32 (ptr, ptr, ...) @fprintf(ptr noundef %10, ptr noundef nonnull @.str.58, i32 noundef 1281, i64 noundef %2, i32 noundef %11) #8
  %13 = load ptr, ptr @stderr, align 8
  %14 = tail call i32 @fflush(ptr noundef %13)
  br label %15

15:                                               ; preds = %9, %4
  store ptr null, ptr %6, align 8
  %16 = icmp eq i8 %3, 1
  %17 = load ptr, ptr @ftab, align 8
  %18 = getelementptr inbounds i8, ptr %17, i64 104
  %19 = load ptr, ptr %18, align 8
  br i1 %16, label %20, label %22

20:                                               ; preds = %15
  %21 = call i32 %19(ptr noundef nonnull %5, ptr noundef %7, ptr noundef nonnull %6, ptr noundef null, ptr noundef null, ptr noundef null, ptr noundef null, ptr noundef null, ptr noundef null) #9
  br label %24

22:                                               ; preds = %15
  %23 = call i32 %19(ptr noundef nonnull %5, ptr noundef %7, ptr noundef null, ptr noundef nonnull %6, ptr noundef null, ptr noundef null, ptr noundef null, ptr noundef null, ptr noundef null) #9
  br label %24

24:                                               ; preds = %22, %20
  %.011 = phi i32 [ %21, %20 ], [ %23, %22 ]
  %25 = load i32, ptr %5, align 4
  call void @checkStatus(ptr noundef %0, ptr noundef %1, i32 noundef %.011, i32 noundef %25, ptr noundef nonnull @.str.59) #9
  %26 = load ptr, ptr %0, align 8
  %27 = getelementptr inbounds i8, ptr %26, i64 1824
  %28 = load ptr, ptr %27, align 8
  %29 = call zeroext i8 %28(ptr noundef nonnull %0) #9
  %.not12 = icmp eq i8 %29, 0
  br i1 %.not12, label %30, label %42

30:                                               ; preds = %24
  %31 = load i32, ptr @JGSS_DEBUG, align 4
  %.not13 = icmp eq i32 %31, 0
  br i1 %.not13, label %39, label %32

32:                                               ; preds = %30
  %33 = load ptr, ptr @stderr, align 8
  %34 = load ptr, ptr %6, align 8
  %35 = ptrtoint ptr %34 to i64
  %36 = call i32 (ptr, ptr, ...) @fprintf(ptr noundef %33, ptr noundef nonnull @.str.60, i32 noundef 1298, i64 noundef %35) #8
  %37 = load ptr, ptr @stderr, align 8
  %38 = call i32 @fflush(ptr noundef %37)
  br label %39

39:                                               ; preds = %32, %30
  %40 = load ptr, ptr %6, align 8
  %41 = ptrtoint ptr %40 to i64
  br label %42

42:                                               ; preds = %24, %39
  %.0 = phi i64 [ %41, %39 ], [ 0, %24 ]
  ret i64 %.0
}